; Function Attrs: mustprogress nounwind uwtable
define hidden noundef i32 @_ZN15ConnectionGraph24find_init_values_phantomEP14JavaObjectNode(ptr noundef nonnull align 8 dereferenceable(232) %0, ptr nocapture noundef readonly %1) local_unnamed_addr #0 align 2 {
  %3 = getelementptr inbounds i8, ptr %1, i64 56
  %4 = load ptr, ptr %3, align 8
  %5 = getelementptr inbounds i8, ptr %4, i64 44
  %6 = load i32, ptr %5, align 4
  %7 = and i32 %6, 63
  %8 = icmp eq i32 %7, 39
  br i1 %8, label %9, label %13

9:                                                ; preds = %2
  %10 = getelementptr inbounds i8, ptr %1, i64 49
  %11 = load i8, ptr %10, align 1
  %12 = and i8 %11, 8
  %.not = icmp eq i8 %12, 0
  br i1 %.not, label %.loopexit, label %13

13:                                               ; preds = %9, %2
  %14 = load i32, ptr %1, align 4
  %15 = icmp sgt i32 %14, 0
  br i1 %15, label %.lr.ph, label %.loopexit

.lr.ph:                                           ; preds = %13
  %16 = getelementptr inbounds i8, ptr %1, i64 8
  %17 = getelementptr inbounds i8, ptr %0, i64 200
  %wide.trip.count = zext nneg i32 %14 to i64
  br label %18

18:                                               ; preds = %.lr.ph, %34
  %indvars.iv = phi i64 [ 0, %.lr.ph ], [ %indvars.iv.next, %34 ]
  %.01115 = phi i32 [ 0, %.lr.ph ], [ %.1, %34 ]
  %19 = load ptr, ptr %16, align 8
  %20 = getelementptr inbounds ptr, ptr %19, i64 %indvars.iv
  %21 = load ptr, ptr %20, align 8
  %22 = getelementptr inbounds i8, ptr %21, i64 48
  %23 = load i8, ptr %22, align 8
  %24 = icmp eq i8 %23, 3
  br i1 %24, label %25, label %34

25:                                               ; preds = %18
  %26 = getelementptr inbounds i8, ptr %21, i64 100
  %27 = load i8, ptr %26, align 4
  %28 = trunc i8 %27 to i1
  br i1 %28, label %29, label %34

29:                                               ; preds = %25
  %30 = load ptr, ptr %17, align 8
  %31 = tail call noundef zeroext i1 @_ZN15ConnectionGraph8add_edgeEP12PointsToNodeS1_(ptr noundef nonnull align 8 dereferenceable(232) %0, ptr noundef nonnull %21, ptr noundef %30)
  br i1 %31, label %32, label %34

32:                                               ; preds = %29
  %33 = add nsw i32 %.01115, 1
  tail call void @_ZN15ConnectionGraph26add_field_uses_to_worklistEP9FieldNode(ptr noundef nonnull align 8 dereferenceable(232) %0, ptr noundef nonnull %21)
  br label %34

34:                                               ; preds = %18, %25, %32, %29
  %.1 = phi i32 [ %33, %32 ], [ %.01115, %29 ], [ %.01115, %25 ], [ %.01115, %18 ]
  %indvars.iv.next = add nuw nsw i64 %indvars.iv, 1
  %exitcond.not = icmp eq i64 %indvars.iv.next, %wide.trip.count
  br i1 %exitcond.not, label %.loopexit, label %18, !llvm.loop !120

.loopexit:                                        ; preds = %34, %13, %9
  %.0 = phi i32 [ 0, %9 ], [ 0, %13 ], [ %.1, %34 ]
  ret i32 %.0
}